target datalayout = "e-m:e-p270:32:32-p271:32:32-p272:64:64-i64:64-i128:128-f80:128-n8:16:32:64-S128"
target triple = "x86_64-pc-linux-gnu"

%struct.Gia_Man_t_ = type { ptr, ptr, i32, i32, i32, i32, ptr, ptr, i32, i32, i32, ptr, ptr, %struct.Vec_Int_t_, %struct.Vec_Int_t_, i32, i32, i32, %struct.Vec_Int_t_, ptr, ptr, ptr, i32, i32, i32, i32, ptr, ptr, ptr, ptr, ptr, i32, i32, ptr, i32, ptr, ptr, ptr, ptr, ptr, ptr, ptr, ptr, ptr, ptr, ptr, ptr, ptr, ptr, ptr, ptr, ptr, ptr, %struct.Vec_Int_t_, %struct.Vec_Int_t_, ptr, ptr, ptr, ptr, ptr, ptr, ptr, ptr, ptr, ptr, ptr, ptr, ptr, ptr, ptr, ptr, ptr, ptr, ptr, ptr, ptr, i32, float, float, ptr, ptr, i32, ptr, ptr, ptr, ptr, ptr, ptr, ptr, ptr, ptr, ptr, ptr, ptr, ptr, ptr, ptr, i64, i64, ptr, ptr, i32, i32, i32, i32, i32, i32, i32, i32, i32, i32, i32, i32, ptr, ptr, ptr, ptr, ptr, ptr, ptr, ptr, i32, i32, i32, ptr, i32, i32, ptr, ptr, ptr, ptr, ptr, ptr, i32, i32, ptr, %struct.Vec_Int_t_, %struct.Vec_Int_t_, %struct.Vec_Int_t_, ptr, ptr, ptr }
%struct.Vec_Int_t_ = type { i32, i32, ptr }
%struct.Gia_Obj_t_ = type <{ i64, i32 }>

; Function Attrs: nounwind uwtable
define internal ptr @Gia_ManObj(ptr noundef %0, i32 noundef %1) #0 {
  %3 = alloca ptr, align 8
  %4 = alloca i32, align 4
  store ptr %0, ptr %3, align 8
  store i32 %1, ptr %4, align 4
  %5 = load ptr, ptr %3, align 8
  %6 = getelementptr inbounds %struct.Gia_Man_t_, ptr %5, i32 0, i32 6
  %7 = load ptr, ptr %6, align 8
  %8 = load i32, ptr %4, align 4
  %9 = sext i32 %8 to i64
  %10 = getelementptr inbounds %struct.Gia_Obj_t_, ptr %7, i64 %9
  ret ptr %10
}

; Function Attrs: nounwind uwtable
define internal i32 @Vec_IntSize(ptr noundef %0) #0 {
  %2 = alloca ptr, align 8
  store ptr %0, ptr %2, align 8
  %3 = load ptr, ptr %2, align 8
  %4 = getelementptr inbounds %struct.Vec_Int_t_, ptr %3, i32 0, i32 1
  %5 = load i32, ptr %4, align 4
  ret i32 %5
}

; Function Attrs: nounwind uwtable
define internal i32 @Vec_IntEntry(ptr noundef %0, i32 noundef %1) #0 {
  %3 = alloca ptr, align 8
  %4 = alloca i32, align 4
  store ptr %0, ptr %3, align 8
  store i32 %1, ptr %4, align 4
  %5 = load ptr, ptr %3, align 8
  %6 = getelementptr inbounds %struct.Vec_Int_t_, ptr %5, i32 0, i32 2
  %7 = load ptr, ptr %6, align 8
  %8 = load i32, ptr %4, align 4
  %9 = sext i32 %8 to i64
  %10 = getelementptr inbounds i32, ptr %7, i64 %9
  %11 = load i32, ptr %10, align 4
  ret i32 %11
}

; Function Attrs: nounwind uwtable
define internal ptr @Gia_ParTestObj(ptr noundef %0, i32 noundef %1) #0 {
  %3 = alloca ptr, align 8
  %4 = alloca i32, align 4
  store ptr %0, ptr %3, align 8
  store i32 %1, ptr %4, align 4
  %5 = load ptr, ptr %3, align 8
  %6 = getelementptr inbounds %struct.Gia_Man_t_, ptr %5, i32 0, i32 99
  %7 = load ptr, ptr %6, align 8
  %8 = load i32, ptr %4, align 4
  %9 = load ptr, ptr %3, align 8
  %10 = getelementptr inbounds %struct.Gia_Man_t_, ptr %9, i32 0, i32 101
  %11 = load i32, ptr %10, align 8
  %12 = shl i32 %11, 1
  %13 = mul nsw i32 %8, %12
  %14 = sext i32 %13 to i64
  %15 = getelementptr inbounds i64, ptr %7, i64 %14
  ret ptr %15
}

; Function Attrs: nounwind uwtable
define internal i32 @Gia_ObjId(ptr noundef %0, ptr noundef %1) #0 {
  %3 = alloca ptr, align 8
  %4 = alloca ptr, align 8
  store ptr %0, ptr %3, align 8
  store ptr %1, ptr %4, align 8
  %5 = load ptr, ptr %4, align 8
  %6 = load ptr, ptr %3, align 8
  %7 = getelementptr inbounds %struct.Gia_Man_t_, ptr %6, i32 0, i32 6
  %8 = load ptr, ptr %7, align 8
  %9 = ptrtoint ptr %5 to i64
  %10 = ptrtoint ptr %8 to i64
  %11 = sub i64 %9, %10
  %12 = sdiv exact i64 %11, 12
  %13 = trunc i64 %12 to i32
  ret i32 %13
}

; Function Attrs: nounwind uwtable
define internal ptr @Gia_ManCo(ptr noundef %0, i32 noundef %1) #0 {
  %3 = alloca ptr, align 8
  %4 = alloca i32, align 4
  store ptr %0, ptr %3, align 8
  store i32 %1, ptr %4, align 4
  %5 = load ptr, ptr %3, align 8
  %6 = load ptr, ptr %3, align 8
  %7 = getelementptr inbounds %struct.Gia_Man_t_, ptr %6, i32 0, i32 12
  %8 = load ptr, ptr %7, align 8
  %9 = load i32, ptr %4, align 4
  %10 = call i32 @Vec_IntEntry(ptr noundef %8, i32 noundef %9)
  %11 = call ptr @Gia_ManObj(ptr noundef %5, i32 noundef %10)
  ret ptr %11
}

; Function Attrs: nounwind uwtable
define internal i32 @Gia_ManPoNum(ptr noundef %0) #0 {
  %2 = alloca ptr, align 8
  store ptr %0, ptr %2, align 8
  %3 = load ptr, ptr %2, align 8
  %4 = getelementptr inbounds %struct.Gia_Man_t_, ptr %3, i32 0, i32 12
  %5 = load ptr, ptr %4, align 8
  %6 = call i32 @Vec_IntSize(ptr noundef %5)
  %7 = load ptr, ptr %2, align 8
  %8 = getelementptr inbounds %struct.Gia_Man_t_, ptr %7, i32 0, i32 2
  %9 = load i32, ptr %8, align 8
  %10 = sub nsw i32 %6, %9
  ret i32 %10
}

; Function Attrs: nounwind uwtable
define internal i32 @Gia_ManRegNum(ptr noundef %0) #0 {
  %2 = alloca ptr, align 8
  store ptr %0, ptr %2, align 8
  %3 = load ptr, ptr %2, align 8
  %4 = getelementptr inbounds %struct.Gia_Man_t_, ptr %3, i32 0, i32 2
  %5 = load i32, ptr %4, align 8
  ret i32 %5
}

; Function Attrs: nounwind uwtable
define void @Gia_ManInseInit(ptr noundef %0, ptr noundef %1) #0 {
  %3 = alloca ptr, align 8
  %4 = alloca ptr, align 8
  %5 = alloca ptr, align 8
  %6 = alloca ptr, align 8
  %7 = alloca ptr, align 8
  %8 = alloca i32, align 4
  %9 = alloca i32, align 4
  store ptr %0, ptr %3, align 8
  store ptr %1, ptr %4, align 8
  store i32 0, ptr %9, align 4
  br label %10

10:                                               ; preds = %108, %2
  %11 = load i32, ptr %9, align 4
  %12 = load ptr, ptr %3, align 8
  %13 = call i32 @Gia_ManRegNum(ptr noundef %12)
  %14 = icmp slt i32 %11, %13
  br i1 %14, label %15, label %23

15:                                               ; preds = %10
  %16 = load ptr, ptr %3, align 8
  %17 = load ptr, ptr %3, align 8
  %18 = call i32 @Gia_ManPoNum(ptr noundef %17)
  %19 = load i32, ptr %9, align 4
  %20 = add nsw i32 %18, %19
  %21 = call ptr @Gia_ManCo(ptr noundef %16, i32 noundef %20)
  store ptr %21, ptr %5, align 8
  %22 = icmp ne ptr %21, null
  br label %23

23:                                               ; preds = %15, %10
  %24 = phi i1 [ false, %10 ], [ %22, %15 ]
  br i1 %24, label %25, label %111

25:                                               ; preds = %23
  %26 = load ptr, ptr %3, align 8
  %27 = load ptr, ptr %3, align 8
  %28 = load ptr, ptr %5, align 8
  %29 = call i32 @Gia_ObjId(ptr noundef %27, ptr noundef %28)
  %30 = call ptr @Gia_ParTestObj(ptr noundef %26, i32 noundef %29)
  store ptr %30, ptr %7, align 8
  %31 = load ptr, ptr %7, align 8
  %32 = load ptr, ptr %3, align 8
  %33 = getelementptr inbounds %struct.Gia_Man_t_, ptr %32, i32 0, i32 101
  %34 = load i32, ptr %33, align 8
  %35 = sext i32 %34 to i64
  %36 = getelementptr inbounds i64, ptr %31, i64 %35
  store ptr %36, ptr %6, align 8
  %37 = load ptr, ptr %4, align 8
  %38 = load i32, ptr %9, align 4
  %39 = call i32 @Vec_IntEntry(ptr noundef %37, i32 noundef %38)
  %40 = icmp eq i32 %39, 0
  br i1 %40, label %41, label %61

41:                                               ; preds = %25
  store i32 0, ptr %8, align 4
  br label %42

42:                                               ; preds = %57, %41
  %43 = load i32, ptr %8, align 4
  %44 = load ptr, ptr %3, align 8
  %45 = getelementptr inbounds %struct.Gia_Man_t_, ptr %44, i32 0, i32 101
  %46 = load i32, ptr %45, align 8
  %47 = icmp slt i32 %43, %46
  br i1 %47, label %48, label %60

48:                                               ; preds = %42
  %49 = load ptr, ptr %7, align 8
  %50 = load i32, ptr %8, align 4
  %51 = sext i32 %50 to i64
  %52 = getelementptr inbounds i64, ptr %49, i64 %51
  store i64 -1, ptr %52, align 8
  %53 = load ptr, ptr %6, align 8
  %54 = load i32, ptr %8, align 4
  %55 = sext i32 %54 to i64
  %56 = getelementptr inbounds i64, ptr %53, i64 %55
  store i64 0, ptr %56, align 8
  br label %57

57:                                               ; preds = %48
  %58 = load i32, ptr %8, align 4
  %59 = add nsw i32 %58, 1
  store i32 %59, ptr %8, align 4
  br label %42, !llvm.loop !4

60:                                               ; preds = %42
  br label %107

61:                                               ; preds = %25
  %62 = load ptr, ptr %4, align 8
  %63 = load i32, ptr %9, align 4
  %64 = call i32 @Vec_IntEntry(ptr noundef %62, i32 noundef %63)
  %65 = icmp eq i32 %64, 1
  br i1 %65, label %66, label %86

66:                                               ; preds = %61
  store i32 0, ptr %8, align 4
  br label %67

67:                                               ; preds = %82, %66
  %68 = load i32, ptr %8, align 4
  %69 = load ptr, ptr %3, align 8
  %70 = getelementptr inbounds %struct.Gia_Man_t_, ptr %69, i32 0, i32 101
  %71 = load i32, ptr %70, align 8
  %72 = icmp slt i32 %68, %71
  br i1 %72, label %73, label %85

73:                                               ; preds = %67
  %74 = load ptr, ptr %7, align 8
  %75 = load i32, ptr %8, align 4
  %76 = sext i32 %75 to i64
  %77 = getelementptr inbounds i64, ptr %74, i64 %76
  store i64 0, ptr %77, align 8
  %78 = load ptr, ptr %6, align 8
  %79 = load i32, ptr %8, align 4
  %80 = sext i32 %79 to i64
  %81 = getelementptr inbounds i64, ptr %78, i64 %80
  store i64 -1, ptr %81, align 8
  br label %82

82:                                               ; preds = %73
  %83 = load i32, ptr %8, align 4
  %84 = add nsw i32 %83, 1
  store i32 %84, ptr %8, align 4
  br label %67, !llvm.loop !6

85:                                               ; preds = %67
  br label %106

86:                                               ; preds = %61
  store i32 0, ptr %8, align 4
  br label %87

87:                                               ; preds = %102, %86
  %88 = load i32, ptr %8, align 4
  %89 = load ptr, ptr %3, align 8
  %90 = getelementptr inbounds %struct.Gia_Man_t_, ptr %89, i32 0, i32 101
  %91 = load i32, ptr %90, align 8
  %92 = icmp slt i32 %88, %91
  br i1 %92, label %93, label %105

93:                                               ; preds = %87
  %94 = load ptr, ptr %6, align 8
  %95 = load i32, ptr %8, align 4
  %96 = sext i32 %95 to i64
  %97 = getelementptr inbounds i64, ptr %94, i64 %96
  store i64 0, ptr %97, align 8
  %98 = load ptr, ptr %7, align 8
  %99 = load i32, ptr %8, align 4
  %100 = sext i32 %99 to i64
  %101 = getelementptr inbounds i64, ptr %98, i64 %100
  store i64 0, ptr %101, align 8
  br label %102

102:                                              ; preds = %93
  %103 = load i32, ptr %8, align 4
  %104 = add nsw i32 %103, 1
  store i32 %104, ptr %8, align 4
  br label %87, !llvm.loop !7

105:                                              ; preds = %87
  br label %106

106:                                              ; preds = %105, %85
  br label %107

107:                                              ; preds = %106, %60
  br label %108

108:                                              ; preds = %107
  %109 = load i32, ptr %9, align 4
  %110 = add nsw i32 %109, 1
  store i32 %110, ptr %9, align 4
  br label %10, !llvm.loop !8

111:                                              ; preds = %23
  ret void
}