; Function Attrs: nofree norecurse nosync nounwind memory(readwrite, inaccessiblemem: none) uwtable
define void @Gia_ManInseInit(ptr noundef readonly captures(none) %0, ptr noundef readonly captures(none) %1) local_unnamed_addr #0 {
  %3 = getelementptr i8, ptr %0, i64 32
  %4 = getelementptr i8, ptr %0, i64 16
  %.val55 = load i32, ptr %4, align 8
  %5 = icmp sgt i32 %.val55, 0
  br i1 %5, label %.lr.ph58, label %.critedge

.lr.ph58:                                         ; preds = %2
  %6 = getelementptr i8, ptr %0, i64 72
  %7 = getelementptr i8, ptr %0, i64 768
  %8 = getelementptr i8, ptr %0, i64 784
  %9 = getelementptr i8, ptr %1, i64 8
  br label %10

10:                                               ; preds = %.lr.ph58, %.loopexit
  %indvars.iv69 = phi i64 [ 0, %.lr.ph58 ], [ %indvars.iv.next70, %.loopexit ]
  %.val57 = phi i32 [ %.val55, %.lr.ph58 ], [ %.val, %.loopexit ]
  %.val41 = load ptr, ptr %3, align 8
  %.not = icmp eq ptr %.val41, null
  br i1 %.not, label %.critedge, label %11

11:                                               ; preds = %10
  %.val38 = load ptr, ptr %6, align 8
  %12 = getelementptr i8, ptr %.val38, i64 8
  %.val42.val = load ptr, ptr %12, align 8
  %13 = getelementptr i8, ptr %.val38, i64 4
  %.val38.val = load i32, ptr %13, align 4
  %14 = trunc nuw nsw i64 %indvars.iv69 to i32
  %15 = sub i32 %14, %.val57
  %16 = add i32 %15, %.val38.val
  %17 = sext i32 %16 to i64
  %18 = getelementptr inbounds i32, ptr %.val42.val, i64 %17
  %19 = load i32, ptr %18, align 4
  %.val44 = load ptr, ptr %7, align 8
  %.val45 = load i32, ptr %8, align 8
  %20 = shl i32 %19, 1
  %21 = mul i32 %20, %.val45
  %22 = sext i32 %21 to i64
  %23 = getelementptr inbounds i64, ptr %.val44, i64 %22
  %24 = sext i32 %.val45 to i64
  %25 = getelementptr inbounds i64, ptr %23, i64 %24
  %.val39 = load ptr, ptr %9, align 8
  %26 = getelementptr inbounds nuw i32, ptr %.val39, i64 %indvars.iv69
  %27 = load i32, ptr %26, align 4
  %28 = icmp sgt i32 %.val45, 0
  switch i32 %27, label %.preheader [
    i32 0, label %.preheader46
    i32 1, label %.preheader48
  ]

.preheader48:                                     ; preds = %11
  br i1 %28, label %.lr.ph, label %.loopexit

.preheader46:                                     ; preds = %11
  br i1 %28, label %.lr.ph52, label %.loopexit

.preheader:                                       ; preds = %11
  br i1 %28, label %.lr.ph54, label %.loopexit

.lr.ph52:                                         ; preds = %.preheader46, %.lr.ph52
  %indvars.iv63 = phi i64 [ %indvars.iv.next64, %.lr.ph52 ], [ 0, %.preheader46 ]
  %29 = getelementptr inbounds nuw i64, ptr %23, i64 %indvars.iv63
  store i64 -1, ptr %29, align 8
  %30 = getelementptr inbounds nuw i64, ptr %25, i64 %indvars.iv63
  store i64 0, ptr %30, align 8
  %indvars.iv.next64 = add nuw nsw i64 %indvars.iv63, 1
  %31 = load i32, ptr %8, align 8
  %32 = sext i32 %31 to i64
  %33 = icmp slt i64 %indvars.iv.next64, %32
  br i1 %33, label %.lr.ph52, label %.loopexit, !llvm.loop !4

.lr.ph:                                           ; preds = %.preheader48, %.lr.ph
  %indvars.iv = phi i64 [ %indvars.iv.next, %.lr.ph ], [ 0, %.preheader48 ]
  %34 = getelementptr inbounds nuw i64, ptr %23, i64 %indvars.iv
  store i64 0, ptr %34, align 8
  %35 = getelementptr inbounds nuw i64, ptr %25, i64 %indvars.iv
  store i64 -1, ptr %35, align 8
  %indvars.iv.next = add nuw nsw i64 %indvars.iv, 1
  %36 = load i32, ptr %8, align 8
  %37 = sext i32 %36 to i64
  %38 = icmp slt i64 %indvars.iv.next, %37
  br i1 %38, label %.lr.ph, label %.loopexit, !llvm.loop !6

.lr.ph54:                                         ; preds = %.preheader, %.lr.ph54
  %indvars.iv66 = phi i64 [ %indvars.iv.next67, %.lr.ph54 ], [ 0, %.preheader ]
  %39 = getelementptr inbounds nuw i64, ptr %25, i64 %indvars.iv66
  store i64 0, ptr %39, align 8
  %40 = getelementptr inbounds nuw i64, ptr %23, i64 %indvars.iv66
  store i64 0, ptr %40, align 8
  %indvars.iv.next67 = add nuw nsw i64 %indvars.iv66, 1
  %41 = load i32, ptr %8, align 8
  %42 = sext i32 %41 to i64
  %43 = icmp slt i64 %indvars.iv.next67, %42
  br i1 %43, label %.lr.ph54, label %.loopexit, !llvm.loop !7

.loopexit:                                        ; preds = %.lr.ph, %.lr.ph52, %.lr.ph54, %.preheader48, %.preheader46, %.preheader
  %indvars.iv.next70 = add nuw nsw i64 %indvars.iv69, 1
  %.val = load i32, ptr %4, align 8
  %44 = sext i32 %.val to i64
  %45 = icmp slt i64 %indvars.iv.next70, %44
  br i1 %45, label %10, label %.critedge, !llvm.loop !8

.critedge:                                        ; preds = %10, %.loopexit, %2
  ret void
}